; Function Attrs: nounwind uwtable
define range(i32 -6, 1) i32 @inflateInit_(ptr noundef %0, ptr noundef readonly captures(address_is_null) %1, i32 noundef %2) local_unnamed_addr #2 {
  %4 = icmp eq ptr %1, null
  br i1 %4, label %inflateInit2_.exit, label %5

5:                                                ; preds = %3
  %6 = load i8, ptr %1, align 1, !tbaa !41
  %7 = icmp ne i8 %6, 49
  %8 = icmp ne i32 %2, 112
  %or.cond.i = or i1 %8, %7
  br i1 %or.cond.i, label %inflateInit2_.exit, label %9

9:                                                ; preds = %5
  %10 = icmp eq ptr %0, null
  br i1 %10, label %inflateInit2_.exit, label %11

11:                                               ; preds = %9
  %12 = getelementptr inbounds nuw i8, ptr %0, i64 48
  store ptr null, ptr %12, align 8, !tbaa !42
  %13 = getelementptr inbounds nuw i8, ptr %0, i64 64
  %14 = load ptr, ptr %13, align 8, !tbaa !3
  %15 = icmp eq ptr %14, null
  br i1 %15, label %16, label %18

16:                                               ; preds = %11
  store ptr @zcalloc, ptr %13, align 8, !tbaa !3
  %17 = getelementptr inbounds nuw i8, ptr %0, i64 80
  store ptr null, ptr %17, align 8, !tbaa !40
  br label %18

18:                                               ; preds = %16, %11
  %19 = phi ptr [ @zcalloc, %16 ], [ %14, %11 ]
  %20 = getelementptr inbounds nuw i8, ptr %0, i64 72
  %21 = load ptr, ptr %20, align 8, !tbaa !12
  %22 = icmp eq ptr %21, null
  br i1 %22, label %23, label %24

23:                                               ; preds = %18
  store ptr @zcfree, ptr %20, align 8, !tbaa !12
  br label %24

24:                                               ; preds = %23, %18
  %25 = getelementptr inbounds nuw i8, ptr %0, i64 80
  %26 = load ptr, ptr %25, align 8, !tbaa !40
  %27 = tail call ptr %19(ptr noundef %26, i32 noundef 1, i32 noundef 7160) #9
  %28 = icmp eq ptr %27, null
  br i1 %28, label %inflateInit2_.exit, label %29

29:                                               ; preds = %24
  %30 = getelementptr inbounds nuw i8, ptr %0, i64 56
  store ptr %27, ptr %30, align 8, !tbaa !13
  store ptr %0, ptr %27, align 8, !tbaa !14
  %31 = getelementptr inbounds nuw i8, ptr %27, i64 72
  store ptr null, ptr %31, align 8, !tbaa !38
  %32 = getelementptr inbounds nuw i8, ptr %27, i64 8
  store i32 16180, ptr %32, align 8, !tbaa !18
  %33 = tail call i32 @inflateReset2(ptr noundef nonnull %0, i32 noundef 15)
  %.not.i = icmp eq i32 %33, 0
  br i1 %.not.i, label %inflateInit2_.exit, label %34

34:                                               ; preds = %29
  %35 = load ptr, ptr %20, align 8, !tbaa !12
  %36 = load ptr, ptr %25, align 8, !tbaa !40
  tail call void %35(ptr noundef %36, ptr noundef nonnull %27) #9
  store ptr null, ptr %30, align 8, !tbaa !13
  br label %inflateInit2_.exit

inflateInit2_.exit:                               ; preds = %3, %5, %9, %24, %29, %34
  %.0.i = phi i32 [ -6, %5 ], [ -6, %3 ], [ -2, %9 ], [ -4, %24 ], [ %33, %34 ], [ 0, %29 ]
  ret i32 %.0.i
}